target datalayout = "e-m:e-p270:32:32-p271:32:32-p272:64:64-i64:64-i128:128-f80:128-n8:16:32:64-S128"
target triple = "x86_64-unknown-linux-gnu"

%"class.smt::theory_array_base" = type <{ %"class.smt::theory.base", i8, [2 x i8], i32, [4 x i8], %class.svector.1, %class.ptr_vector, %class.svector.3, %class.svector.3, %class.svector.3, %class.scoped_ptr, %class.ptr_vector.5, %class.obj_map, %class.ptr_hashtable, %class.svector.9, ptr, %class.ptr_vector, %class.ptr_vector.11, %class.svector.1, %class.obj_map.13, %class.ptr_vector, %class.ptr_vector.18, i8, [7 x i8] }>
%"class.smt::theory.base" = type <{ ptr, i32, [4 x i8], ptr, ptr, %class.ptr_vector, %class.svector, i32, i8 }>
%class.svector = type { %class.vector.0 }
%class.vector.0 = type { ptr }
%class.svector.3 = type { %class.vector.4 }
%class.vector.4 = type { ptr }
%class.scoped_ptr = type { ptr }
%class.ptr_vector.5 = type { %class.vector.6 }
%class.vector.6 = type { ptr }
%class.obj_map = type { %class.core_hashtable }
%class.core_hashtable = type <{ ptr, i32, i32, i32, [4 x i8] }>
%class.ptr_hashtable = type { %class.core_hashtable.base.8, [4 x i8] }
%class.core_hashtable.base.8 = type <{ ptr, i32, i32, i32 }>
%class.svector.9 = type { %class.vector.10 }
%class.vector.10 = type { ptr }
%class.ptr_vector.11 = type { %class.vector.12 }
%class.vector.12 = type { ptr }
%class.svector.1 = type { %class.vector.2 }
%class.vector.2 = type { ptr }
%class.obj_map.13 = type { %class.core_hashtable.14 }
%class.core_hashtable.14 = type <{ ptr, i32, i32, i32, [4 x i8] }>
%class.ptr_vector = type { %class.vector }
%class.vector = type { ptr }
%class.ptr_vector.18 = type { %class.vector.19 }
%class.vector.19 = type { ptr }

; Function Attrs: mustprogress nounwind uwtable
define linkonce_odr hidden void @_ZN6vectorISt4pairIPN3smt5enodeES3_ELb0EjE5resetEv(ptr noundef nonnull align 8 dereferenceable(8) %this) #4 comdat align 2 {
entry:
  %this.addr = alloca ptr, align 8
  store ptr %this, ptr %this.addr, align 8
  %this1 = load ptr, ptr %this.addr, align 8
  %m_data = getelementptr inbounds %class.vector.4, ptr %this1, i32 0, i32 0
  %0 = load ptr, ptr %m_data, align 8
  %tobool = icmp ne ptr %0, null
  br i1 %tobool, label %if.then, label %if.end

if.then:                                          ; preds = %entry
  %m_data2 = getelementptr inbounds %class.vector.4, ptr %this1, i32 0, i32 0
  %1 = load ptr, ptr %m_data2, align 8
  %arrayidx = getelementptr inbounds i32, ptr %1, i64 -1
  store i32 0, ptr %arrayidx, align 4
  br label %if.end

if.end:                                           ; preds = %if.then, %entry
  ret void
}

; Function Attrs: mustprogress nounwind uwtable
define linkonce_odr hidden void @_ZN6vectorIPN3smt5enodeELb0EjE5resetEv(ptr noundef nonnull align 8 dereferenceable(8) %this) #4 comdat align 2 {
entry:
  %this.addr = alloca ptr, align 8
  store ptr %this, ptr %this.addr, align 8
  %this1 = load ptr, ptr %this.addr, align 8
  %m_data = getelementptr inbounds %class.vector, ptr %this1, i32 0, i32 0
  %0 = load ptr, ptr %m_data, align 8
  %tobool = icmp ne ptr %0, null
  br i1 %tobool, label %if.then, label %if.end

if.then:                                          ; preds = %entry
  %m_data2 = getelementptr inbounds %class.vector, ptr %this1, i32 0, i32 0
  %1 = load ptr, ptr %m_data2, align 8
  %arrayidx = getelementptr inbounds i32, ptr %1, i64 -1
  store i32 0, ptr %arrayidx, align 4
  br label %if.end

if.end:                                           ; preds = %if.then, %entry
  ret void
}

; Function Attrs: mustprogress uwtable
define hidden void @_ZN3smt17theory_array_base12reset_queuesEv(ptr noundef nonnull align 8 dereferenceable(249) %this) #5 align 2 {
entry:
  %this.addr = alloca ptr, align 8
  store ptr %this, ptr %this.addr, align 8
  %this1 = load ptr, ptr %this.addr, align 8
  %m_axiom1_todo = getelementptr inbounds %"class.smt::theory_array_base", ptr %this1, i32 0, i32 6
  call void @_ZN6vectorIPN3smt5enodeELb0EjE5resetEv(ptr noundef nonnull align 8 dereferenceable(8) %m_axiom1_todo)
  %m_axiom2_todo = getelementptr inbounds %"class.smt::theory_array_base", ptr %this1, i32 0, i32 7
  call void @_ZN6vectorISt4pairIPN3smt5enodeES3_ELb0EjE5resetEv(ptr noundef nonnull align 8 dereferenceable(8) %m_axiom2_todo)
  %m_extensionality_todo = getelementptr inbounds %"class.smt::theory_array_base", ptr %this1, i32 0, i32 8
  call void @_ZN6vectorISt4pairIPN3smt5enodeES3_ELb0EjE5resetEv(ptr noundef nonnull align 8 dereferenceable(8) %m_extensionality_todo)
  %m_congruent_todo = getelementptr inbounds %"class.smt::theory_array_base", ptr %this1, i32 0, i32 9
  call void @_ZN6vectorISt4pairIPN3smt5enodeES3_ELb0EjE5resetEv(ptr noundef nonnull align 8 dereferenceable(8) %m_congruent_todo)
  ret void
}

; Function Attrs: mustprogress uwtable
define hidden void @_ZN3smt17theory_array_base8reset_ehEv(ptr noundef nonnull align 8 dereferenceable(249) %this) unnamed_addr #5 align 2 {
entry:
  %this.addr = alloca ptr, align 8
  store ptr %this, ptr %this.addr, align 8
  %this1 = load ptr, ptr %this.addr, align 8
  call void @_ZN3smt17theory_array_base12reset_queuesEv(ptr noundef nonnull align 8 dereferenceable(249) %this1)
  %vtable = load ptr, ptr %this1, align 8
  %vfn = getelementptr inbounds ptr, ptr %vtable, i64 13
  %0 = load ptr, ptr %vfn, align 8
  call void %0(ptr noundef nonnull align 8 dereferenceable(249) %this1, i32 noundef 0)
  call void @_ZN3smt6theory8reset_ehEv(ptr noundef nonnull align 8 dereferenceable(53) %this1)
  ret void
}