; Function Attrs: mustprogress uwtable
define hidden void @_ZN3smt17theory_array_base8reset_ehEv(ptr noundef nonnull align 8 dereferenceable(249) %this) unnamed_addr #3 align 2 {
entry:
  %m_axiom1_todo.i = getelementptr inbounds i8, ptr %this, i64 72
  %0 = load ptr, ptr %m_axiom1_todo.i, align 8
  %tobool.not.i.i = icmp eq ptr %0, null
  br i1 %tobool.not.i.i, label %_ZN6vectorIPN3smt5enodeELb0EjE5resetEv.exit.i, label %if.then.i.i

if.then.i.i:                                      ; preds = %entry
  %arrayidx.i.i = getelementptr inbounds i8, ptr %0, i64 -4
  store i32 0, ptr %arrayidx.i.i, align 4
  br label %_ZN6vectorIPN3smt5enodeELb0EjE5resetEv.exit.i

_ZN6vectorIPN3smt5enodeELb0EjE5resetEv.exit.i:    ; preds = %if.then.i.i, %entry
  %m_axiom2_todo.i = getelementptr inbounds i8, ptr %this, i64 80
  %1 = load ptr, ptr %m_axiom2_todo.i, align 8
  %tobool.not.i1.i = icmp eq ptr %1, null
  br i1 %tobool.not.i1.i, label %_ZN6vectorISt4pairIPN3smt5enodeES3_ELb0EjE5resetEv.exit.i, label %if.then.i2.i

if.then.i2.i:                                     ; preds = %_ZN6vectorIPN3smt5enodeELb0EjE5resetEv.exit.i
  %arrayidx.i3.i = getelementptr inbounds i8, ptr %1, i64 -4
  store i32 0, ptr %arrayidx.i3.i, align 4
  br label %_ZN6vectorISt4pairIPN3smt5enodeES3_ELb0EjE5resetEv.exit.i

_ZN6vectorISt4pairIPN3smt5enodeES3_ELb0EjE5resetEv.exit.i: ; preds = %if.then.i2.i, %_ZN6vectorIPN3smt5enodeELb0EjE5resetEv.exit.i
  %m_extensionality_todo.i = getelementptr inbounds i8, ptr %this, i64 88
  %2 = load ptr, ptr %m_extensionality_todo.i, align 8
  %tobool.not.i4.i = icmp eq ptr %2, null
  br i1 %tobool.not.i4.i, label %_ZN6vectorISt4pairIPN3smt5enodeES3_ELb0EjE5resetEv.exit7.i, label %if.then.i5.i

if.then.i5.i:                                     ; preds = %_ZN6vectorISt4pairIPN3smt5enodeES3_ELb0EjE5resetEv.exit.i
  %arrayidx.i6.i = getelementptr inbounds i8, ptr %2, i64 -4
  store i32 0, ptr %arrayidx.i6.i, align 4
  br label %_ZN6vectorISt4pairIPN3smt5enodeES3_ELb0EjE5resetEv.exit7.i

_ZN6vectorISt4pairIPN3smt5enodeES3_ELb0EjE5resetEv.exit7.i: ; preds = %if.then.i5.i, %_ZN6vectorISt4pairIPN3smt5enodeES3_ELb0EjE5resetEv.exit.i
  %m_congruent_todo.i = getelementptr inbounds i8, ptr %this, i64 96
  %3 = load ptr, ptr %m_congruent_todo.i, align 8
  %tobool.not.i8.i = icmp eq ptr %3, null
  br i1 %tobool.not.i8.i, label %_ZN3smt17theory_array_base12reset_queuesEv.exit, label %if.then.i9.i

if.then.i9.i:                                     ; preds = %_ZN6vectorISt4pairIPN3smt5enodeES3_ELb0EjE5resetEv.exit7.i
  %arrayidx.i10.i = getelementptr inbounds i8, ptr %3, i64 -4
  store i32 0, ptr %arrayidx.i10.i, align 4
  br label %_ZN3smt17theory_array_base12reset_queuesEv.exit

_ZN3smt17theory_array_base12reset_queuesEv.exit:  ; preds = %_ZN6vectorISt4pairIPN3smt5enodeES3_ELb0EjE5resetEv.exit7.i, %if.then.i9.i
  %vtable = load ptr, ptr %this, align 8
  %vfn = getelementptr inbounds i8, ptr %vtable, i64 104
  %4 = load ptr, ptr %vfn, align 8
  tail call void %4(ptr noundef nonnull align 8 dereferenceable(249) %this, i32 noundef 0)
  tail call void @_ZN3smt6theory8reset_ehEv(ptr noundef nonnull align 8 dereferenceable(53) %this)
  ret void
}